; Function Attrs: mustprogress uwtable
define void @_ZN9grpc_core4Call10DeleteThisEv(ptr noundef nonnull align 8 dereferenceable(112) %this) local_unnamed_addr #3 align 2 personality ptr @__gxx_personality_v0 {
entry:
  %channel_ = getelementptr inbounds i8, ptr %this, i64 8
  %0 = load ptr, ptr %channel_, align 8
  store ptr null, ptr %channel_, align 8
  %arena_ = getelementptr inbounds i8, ptr %this, i64 16
  %1 = load ptr, ptr %arena_, align 8
  %vtable = load ptr, ptr %this, align 8
  %vfn = getelementptr inbounds i8, ptr %vtable, i64 120
  %2 = load ptr, ptr %vfn, align 8
  tail call void %2(ptr noundef nonnull align 8 dereferenceable(112) %this) #28
  %3 = load atomic i64, ptr %1 monotonic, align 8
  invoke void @_ZN9grpc_core7Channel22UpdateCallSizeEstimateEm(ptr noundef nonnull align 8 dereferenceable(176) %0, i64 noundef %3)
          to label %invoke.cont4 unwind label %lpad

invoke.cont4:                                     ; preds = %entry
  invoke void @_ZN9grpc_core5Arena7DestroyEv(ptr noundef nonnull align 8 dereferenceable(48) %1)
          to label %if.then.i unwind label %lpad

if.then.i:                                        ; preds = %invoke.cont4
  %refs_.i.i = getelementptr inbounds i8, ptr %0, i64 8
  %4 = atomicrmw sub ptr %refs_.i.i, i64 1 acq_rel, align 8
  %cmp.i.i.i = icmp eq i64 %4, 1
  br i1 %cmp.i.i.i, label %if.then.i.i, label %_ZN9grpc_core13RefCountedPtrINS_7ChannelEED2Ev.exit

if.then.i.i:                                      ; preds = %if.then.i
  %vtable.i.i.i = load ptr, ptr %0, align 8
  %vfn.i.i.i = getelementptr inbounds i8, ptr %vtable.i.i.i, i64 8
  %5 = load ptr, ptr %vfn.i.i.i, align 8
  tail call void %5(ptr noundef nonnull align 8 dereferenceable(176) %0) #28
  br label %_ZN9grpc_core13RefCountedPtrINS_7ChannelEED2Ev.exit

_ZN9grpc_core13RefCountedPtrINS_7ChannelEED2Ev.exit: ; preds = %if.then.i, %if.then.i.i
  ret void

lpad:                                             ; preds = %invoke.cont4, %entry
  %6 = landingpad { ptr, i32 }
          cleanup
  %cmp.not.i2 = icmp eq ptr %0, null
  br i1 %cmp.not.i2, label %_ZN9grpc_core13RefCountedPtrINS_7ChannelEED2Ev.exit9, label %if.then.i3

if.then.i3:                                       ; preds = %lpad
  %refs_.i.i4 = getelementptr inbounds i8, ptr %0, i64 8
  %7 = atomicrmw sub ptr %refs_.i.i4, i64 1 acq_rel, align 8
  %cmp.i.i.i5 = icmp eq i64 %7, 1
  br i1 %cmp.i.i.i5, label %if.then.i.i6, label %_ZN9grpc_core13RefCountedPtrINS_7ChannelEED2Ev.exit9

if.then.i.i6:                                     ; preds = %if.then.i3
  %vtable.i.i.i7 = load ptr, ptr %0, align 8
  %vfn.i.i.i8 = getelementptr inbounds i8, ptr %vtable.i.i.i7, i64 8
  %8 = load ptr, ptr %vfn.i.i.i8, align 8
  tail call void %8(ptr noundef nonnull align 8 dereferenceable(176) %0) #28
  br label %_ZN9grpc_core13RefCountedPtrINS_7ChannelEED2Ev.exit9

_ZN9grpc_core13RefCountedPtrINS_7ChannelEED2Ev.exit9: ; preds = %lpad, %if.then.i3, %if.then.i.i6
  resume { ptr, i32 } %6
}